target datalayout = "e-m:e-p270:32:32-p271:32:32-p272:64:64-i64:64-i128:128-f80:128-n8:16:32:64-S128"
target triple = "x86_64-pc-linux-gnu"

%struct.PHP_SNEFRU_CTX = type { [16 x i32], [2 x i32], i8, [32 x i8] }

; Function Attrs: inlinehint nounwind uwtable
define internal void @SnefruTransform(ptr noundef %0, ptr noundef %1) #4 {
  %3 = alloca ptr, align 8
  %4 = alloca ptr, align 8
  %5 = alloca i32, align 4
  %6 = alloca i32, align 4
  store ptr %0, ptr %3, align 8, !tbaa !4
  store ptr %1, ptr %4, align 8, !tbaa !10
  call void @llvm.lifetime.start.p0(i64 4, ptr %5) #7
  call void @llvm.lifetime.start.p0(i64 4, ptr %6) #7
  store i32 0, ptr %5, align 4, !tbaa !14
  store i32 0, ptr %6, align 4, !tbaa !14
  br label %7

7:                                                ; preds = %50, %2
  %8 = load i32, ptr %5, align 4, !tbaa !14
  %9 = icmp slt i32 %8, 32
  br i1 %9, label %10, label %55

10:                                               ; preds = %7
  %11 = load ptr, ptr %4, align 8, !tbaa !10
  %12 = load i32, ptr %5, align 4, !tbaa !14
  %13 = sext i32 %12 to i64
  %14 = getelementptr inbounds i8, ptr %11, i64 %13
  %15 = load i8, ptr %14, align 1, !tbaa !18
  %16 = zext i8 %15 to i32
  %17 = shl i32 %16, 24
  %18 = load ptr, ptr %4, align 8, !tbaa !10
  %19 = load i32, ptr %5, align 4, !tbaa !14
  %20 = add nsw i32 %19, 1
  %21 = sext i32 %20 to i64
  %22 = getelementptr inbounds i8, ptr %18, i64 %21
  %23 = load i8, ptr %22, align 1, !tbaa !18
  %24 = zext i8 %23 to i32
  %25 = shl i32 %24, 16
  %26 = or i32 %17, %25
  %27 = load ptr, ptr %4, align 8, !tbaa !10
  %28 = load i32, ptr %5, align 4, !tbaa !14
  %29 = add nsw i32 %28, 2
  %30 = sext i32 %29 to i64
  %31 = getelementptr inbounds i8, ptr %27, i64 %30
  %32 = load i8, ptr %31, align 1, !tbaa !18
  %33 = zext i8 %32 to i32
  %34 = shl i32 %33, 8
  %35 = or i32 %26, %34
  %36 = load ptr, ptr %4, align 8, !tbaa !10
  %37 = load i32, ptr %5, align 4, !tbaa !14
  %38 = add nsw i32 %37, 3
  %39 = sext i32 %38 to i64
  %40 = getelementptr inbounds i8, ptr %36, i64 %39
  %41 = load i8, ptr %40, align 1, !tbaa !18
  %42 = zext i8 %41 to i32
  %43 = or i32 %35, %42
  %44 = load ptr, ptr %3, align 8, !tbaa !4
  %45 = getelementptr inbounds nuw %struct.PHP_SNEFRU_CTX, ptr %44, i32 0, i32 0
  %46 = load i32, ptr %6, align 4, !tbaa !14
  %47 = add nsw i32 8, %46
  %48 = sext i32 %47 to i64
  %49 = getelementptr inbounds [16 x i32], ptr %45, i64 0, i64 %48
  store i32 %43, ptr %49, align 4, !tbaa !14
  br label %50

50:                                               ; preds = %10
  %51 = load i32, ptr %5, align 4, !tbaa !14
  %52 = add nsw i32 %51, 4
  store i32 %52, ptr %5, align 4, !tbaa !14
  %53 = load i32, ptr %6, align 4, !tbaa !14
  %54 = add nsw i32 %53, 1
  store i32 %54, ptr %6, align 4, !tbaa !14
  br label %7

55:                                               ; preds = %7
  %56 = load ptr, ptr %3, align 8, !tbaa !4
  %57 = getelementptr inbounds nuw %struct.PHP_SNEFRU_CTX, ptr %56, i32 0, i32 0
  %58 = getelementptr inbounds [16 x i32], ptr %57, i64 0, i64 0
  call void @Snefru(ptr noundef %58)
  %59 = load ptr, ptr %3, align 8, !tbaa !4
  %60 = getelementptr inbounds nuw %struct.PHP_SNEFRU_CTX, ptr %59, i32 0, i32 0
  %61 = getelementptr inbounds [16 x i32], ptr %60, i64 0, i64 8
  call void @explicit_bzero(ptr noundef %61, i64 noundef 32) #7
  call void @llvm.lifetime.end.p0(i64 4, ptr %6) #7
  call void @llvm.lifetime.end.p0(i64 4, ptr %5) #7
  ret void
}

; Function Attrs: nounwind uwtable
define dso_local void @PHP_SNEFRUFinal(ptr noundef %0, ptr noundef %1) #0 {
  %3 = alloca ptr, align 8
  %4 = alloca ptr, align 8
  %5 = alloca i32, align 4
  %6 = alloca i32, align 4
  store ptr %0, ptr %3, align 8, !tbaa !10
  store ptr %1, ptr %4, align 8, !tbaa !4
  call void @llvm.lifetime.start.p0(i64 4, ptr %5) #7
  call void @llvm.lifetime.start.p0(i64 4, ptr %6) #7
  %7 = load ptr, ptr %4, align 8, !tbaa !4
  %8 = getelementptr inbounds nuw %struct.PHP_SNEFRU_CTX, ptr %7, i32 0, i32 2
  %9 = load i8, ptr %8, align 4, !tbaa !16
  %10 = icmp ne i8 %9, 0
  br i1 %10, label %11, label %16

11:                                               ; preds = %2
  %12 = load ptr, ptr %4, align 8, !tbaa !4
  %13 = load ptr, ptr %4, align 8, !tbaa !4
  %14 = getelementptr inbounds nuw %struct.PHP_SNEFRU_CTX, ptr %13, i32 0, i32 3
  %15 = getelementptr inbounds [32 x i8], ptr %14, i64 0, i64 0
  call void @SnefruTransform(ptr noundef %12, ptr noundef %15)
  br label %16

16:                                               ; preds = %11, %2
  %17 = load ptr, ptr %4, align 8, !tbaa !4
  %18 = getelementptr inbounds nuw %struct.PHP_SNEFRU_CTX, ptr %17, i32 0, i32 1
  %19 = getelementptr inbounds [2 x i32], ptr %18, i64 0, i64 0
  %20 = load i32, ptr %19, align 4, !tbaa !14
  %21 = load ptr, ptr %4, align 8, !tbaa !4
  %22 = getelementptr inbounds nuw %struct.PHP_SNEFRU_CTX, ptr %21, i32 0, i32 0
  %23 = getelementptr inbounds [16 x i32], ptr %22, i64 0, i64 14
  store i32 %20, ptr %23, align 4, !tbaa !14
  %24 = load ptr, ptr %4, align 8, !tbaa !4
  %25 = getelementptr inbounds nuw %struct.PHP_SNEFRU_CTX, ptr %24, i32 0, i32 1
  %26 = getelementptr inbounds [2 x i32], ptr %25, i64 0, i64 1
  %27 = load i32, ptr %26, align 4, !tbaa !14
  %28 = load ptr, ptr %4, align 8, !tbaa !4
  %29 = getelementptr inbounds nuw %struct.PHP_SNEFRU_CTX, ptr %28, i32 0, i32 0
  %30 = getelementptr inbounds [16 x i32], ptr %29, i64 0, i64 15
  store i32 %27, ptr %30, align 4, !tbaa !14
  %31 = load ptr, ptr %4, align 8, !tbaa !4
  %32 = getelementptr inbounds nuw %struct.PHP_SNEFRU_CTX, ptr %31, i32 0, i32 0
  %33 = getelementptr inbounds [16 x i32], ptr %32, i64 0, i64 0
  call void @Snefru(ptr noundef %33)
  store i32 0, ptr %5, align 4, !tbaa !14
  store i32 0, ptr %6, align 4, !tbaa !14
  br label %34

34:                                               ; preds = %92, %16
  %35 = load i32, ptr %6, align 4, !tbaa !14
  %36 = icmp ult i32 %35, 32
  br i1 %36, label %37, label %97

37:                                               ; preds = %34
  %38 = load ptr, ptr %4, align 8, !tbaa !4
  %39 = getelementptr inbounds nuw %struct.PHP_SNEFRU_CTX, ptr %38, i32 0, i32 0
  %40 = load i32, ptr %5, align 4, !tbaa !14
  %41 = zext i32 %40 to i64
  %42 = getelementptr inbounds nuw [16 x i32], ptr %39, i64 0, i64 %41
  %43 = load i32, ptr %42, align 4, !tbaa !14
  %44 = lshr i32 %43, 24
  %45 = and i32 %44, 255
  %46 = trunc i32 %45 to i8
  %47 = load ptr, ptr %3, align 8, !tbaa !10
  %48 = load i32, ptr %6, align 4, !tbaa !14
  %49 = zext i32 %48 to i64
  %50 = getelementptr inbounds nuw i8, ptr %47, i64 %49
  store i8 %46, ptr %50, align 1, !tbaa !18
  %51 = load ptr, ptr %4, align 8, !tbaa !4
  %52 = getelementptr inbounds nuw %struct.PHP_SNEFRU_CTX, ptr %51, i32 0, i32 0
  %53 = load i32, ptr %5, align 4, !tbaa !14
  %54 = zext i32 %53 to i64
  %55 = getelementptr inbounds nuw [16 x i32], ptr %52, i64 0, i64 %54
  %56 = load i32, ptr %55, align 4, !tbaa !14
  %57 = lshr i32 %56, 16
  %58 = and i32 %57, 255
  %59 = trunc i32 %58 to i8
  %60 = load ptr, ptr %3, align 8, !tbaa !10
  %61 = load i32, ptr %6, align 4, !tbaa !14
  %62 = add i32 %61, 1
  %63 = zext i32 %62 to i64
  %64 = getelementptr inbounds nuw i8, ptr %60, i64 %63
  store i8 %59, ptr %64, align 1, !tbaa !18
  %65 = load ptr, ptr %4, align 8, !tbaa !4
  %66 = getelementptr inbounds nuw %struct.PHP_SNEFRU_CTX, ptr %65, i32 0, i32 0
  %67 = load i32, ptr %5, align 4, !tbaa !14
  %68 = zext i32 %67 to i64
  %69 = getelementptr inbounds nuw [16 x i32], ptr %66, i64 0, i64 %68
  %70 = load i32, ptr %69, align 4, !tbaa !14
  %71 = lshr i32 %70, 8
  %72 = and i32 %71, 255
  %73 = trunc i32 %72 to i8
  %74 = load ptr, ptr %3, align 8, !tbaa !10
  %75 = load i32, ptr %6, align 4, !tbaa !14
  %76 = add i32 %75, 2
  %77 = zext i32 %76 to i64
  %78 = getelementptr inbounds nuw i8, ptr %74, i64 %77
  store i8 %73, ptr %78, align 1, !tbaa !18
  %79 = load ptr, ptr %4, align 8, !tbaa !4
  %80 = getelementptr inbounds nuw %struct.PHP_SNEFRU_CTX, ptr %79, i32 0, i32 0
  %81 = load i32, ptr %5, align 4, !tbaa !14
  %82 = zext i32 %81 to i64
  %83 = getelementptr inbounds nuw [16 x i32], ptr %80, i64 0, i64 %82
  %84 = load i32, ptr %83, align 4, !tbaa !14
  %85 = and i32 %84, 255
  %86 = trunc i32 %85 to i8
  %87 = load ptr, ptr %3, align 8, !tbaa !10
  %88 = load i32, ptr %6, align 4, !tbaa !14
  %89 = add i32 %88, 3
  %90 = zext i32 %89 to i64
  %91 = getelementptr inbounds nuw i8, ptr %87, i64 %90
  store i8 %86, ptr %91, align 1, !tbaa !18
  br label %92

92:                                               ; preds = %37
  %93 = load i32, ptr %5, align 4, !tbaa !14
  %94 = add i32 %93, 1
  store i32 %94, ptr %5, align 4, !tbaa !14
  %95 = load i32, ptr %6, align 4, !tbaa !14
  %96 = add i32 %95, 4
  store i32 %96, ptr %6, align 4, !tbaa !14
  br label %34

97:                                               ; preds = %34
  %98 = load ptr, ptr %4, align 8, !tbaa !4
  call void @explicit_bzero(ptr noundef %98, i64 noundef 108) #7
  call void @llvm.lifetime.end.p0(i64 4, ptr %6) #7
  call void @llvm.lifetime.end.p0(i64 4, ptr %5) #7
  ret void
}