; Function Attrs: nounwind uwtable
define dso_local void @PHP_SNEFRUFinal(ptr noundef writeonly captures(none) %0, ptr noundef %1) #2 {
  %3 = getelementptr inbounds nuw i8, ptr %1, i64 72
  %4 = load i8, ptr %3, align 4, !tbaa !8
  %.not = icmp eq i8 %4, 0
  br i1 %.not, label %32, label %5

5:                                                ; preds = %2
  %6 = getelementptr inbounds nuw i8, ptr %1, i64 73
  br label %7

7:                                                ; preds = %7, %5
  %indvars.iv17.i = phi i64 [ 0, %5 ], [ %indvars.iv.next18.i, %7 ]
  %indvars.iv.i = phi i64 [ 0, %5 ], [ %indvars.iv.next.i, %7 ]
  %8 = getelementptr inbounds nuw i8, ptr %6, i64 %indvars.iv17.i
  %9 = load i8, ptr %8, align 1, !tbaa !10
  %10 = zext i8 %9 to i32
  %11 = shl nuw i32 %10, 24
  %12 = or disjoint i64 %indvars.iv17.i, 1
  %13 = getelementptr inbounds nuw i8, ptr %6, i64 %12
  %14 = load i8, ptr %13, align 1, !tbaa !10
  %15 = zext i8 %14 to i32
  %16 = shl nuw nsw i32 %15, 16
  %17 = or disjoint i32 %16, %11
  %18 = or disjoint i64 %indvars.iv17.i, 2
  %19 = getelementptr inbounds nuw i8, ptr %6, i64 %18
  %20 = load i8, ptr %19, align 1, !tbaa !10
  %21 = zext i8 %20 to i32
  %22 = shl nuw nsw i32 %21, 8
  %23 = or disjoint i32 %17, %22
  %24 = or disjoint i64 %indvars.iv17.i, 3
  %25 = getelementptr inbounds nuw i8, ptr %6, i64 %24
  %26 = load i8, ptr %25, align 1, !tbaa !10
  %27 = zext i8 %26 to i32
  %28 = or disjoint i32 %23, %27
  %29 = add nuw nsw i64 %indvars.iv.i, 8
  %30 = getelementptr inbounds nuw [16 x i32], ptr %1, i64 0, i64 %29
  store i32 %28, ptr %30, align 4, !tbaa !4
  %indvars.iv.next18.i = add nuw nsw i64 %indvars.iv17.i, 4
  %indvars.iv.next.i = add nuw nsw i64 %indvars.iv.i, 1
  %exitcond.not.i = icmp eq i64 %indvars.iv.next.i, 8
  br i1 %exitcond.not.i, label %SnefruTransform.exit, label %7

SnefruTransform.exit:                             ; preds = %7
  tail call fastcc void @Snefru(ptr noundef nonnull %1)
  %31 = getelementptr inbounds nuw i8, ptr %1, i64 32
  tail call void @explicit_bzero(ptr noundef nonnull %31, i64 noundef 32) #7
  br label %32

32:                                               ; preds = %SnefruTransform.exit, %2
  %33 = getelementptr inbounds nuw i8, ptr %1, i64 64
  %34 = load i32, ptr %33, align 4, !tbaa !4
  %35 = getelementptr inbounds nuw i8, ptr %1, i64 56
  store i32 %34, ptr %35, align 4, !tbaa !4
  %36 = getelementptr inbounds nuw i8, ptr %1, i64 68
  %37 = load i32, ptr %36, align 4, !tbaa !4
  %38 = getelementptr inbounds nuw i8, ptr %1, i64 60
  store i32 %37, ptr %38, align 4, !tbaa !4
  tail call fastcc void @Snefru(ptr noundef nonnull %1)
  br label %39

39:                                               ; preds = %32, %39
  %indvars.iv30 = phi i64 [ 0, %32 ], [ %indvars.iv.next31, %39 ]
  %indvars.iv = phi i64 [ 0, %32 ], [ %indvars.iv.next, %39 ]
  %40 = getelementptr inbounds nuw [16 x i32], ptr %1, i64 0, i64 %indvars.iv30
  %41 = load i32, ptr %40, align 4, !tbaa !4
  %42 = lshr i32 %41, 24
  %43 = trunc nuw i32 %42 to i8
  %44 = getelementptr inbounds nuw i8, ptr %0, i64 %indvars.iv
  store i8 %43, ptr %44, align 1, !tbaa !10
  %45 = load i32, ptr %40, align 4, !tbaa !4
  %46 = lshr i32 %45, 16
  %47 = trunc i32 %46 to i8
  %48 = or disjoint i64 %indvars.iv, 1
  %49 = getelementptr inbounds nuw i8, ptr %0, i64 %48
  store i8 %47, ptr %49, align 1, !tbaa !10
  %50 = load i32, ptr %40, align 4, !tbaa !4
  %51 = lshr i32 %50, 8
  %52 = trunc i32 %51 to i8
  %53 = or disjoint i64 %indvars.iv, 2
  %54 = getelementptr inbounds nuw i8, ptr %0, i64 %53
  store i8 %52, ptr %54, align 1, !tbaa !10
  %55 = load i32, ptr %40, align 4, !tbaa !4
  %56 = trunc i32 %55 to i8
  %57 = or disjoint i64 %indvars.iv, 3
  %58 = getelementptr inbounds nuw i8, ptr %0, i64 %57
  store i8 %56, ptr %58, align 1, !tbaa !10
  %indvars.iv.next31 = add nuw nsw i64 %indvars.iv30, 1
  %indvars.iv.next = add nuw nsw i64 %indvars.iv, 4
  %exitcond.not = icmp eq i64 %indvars.iv.next31, 8
  br i1 %exitcond.not, label %59, label %39

59:                                               ; preds = %39
  tail call void @explicit_bzero(ptr noundef nonnull %1, i64 noundef 108) #7
  ret void
}